; ModuleID = 'bench/linux/original/osq_lock.ll'
source_filename = "bench/linux/original/osq_lock.ll"
target datalayout = "e-m:e-p270:32:32-p271:32:32-p272:64:64-i64:64-i128:128-f80:128-n8:16:32:64-S128"
target triple = "x86_64-unknown-linux-gnu"

%struct.optimistic_spin_node = type { ptr, ptr, i32, i32 }
%struct.pcpu_hot = type { %union.anon }
%union.anon = type { %struct.anon, [16 x i8] }
%struct.anon = type { ptr, i32, i32, i64, i64, ptr, i16, i8 }

@this_cpu_off = external dso_local global i64, section ".data..percpu..read_mostly", align 8
@osq_node = internal global %struct.optimistic_spin_node zeroinitializer, section ".data..percpu..shared_aligned", align 64
@pcpu_hot = external dso_local global %struct.pcpu_hot, section ".data..percpu..shared_aligned", align 64
@__per_cpu_offset = external dso_local local_unnamed_addr global [64 x i64], align 16

; Function Attrs: fn_ret_thunk_extern nounwind null_pointer_is_valid
define dso_local noundef zeroext i1 @osq_lock(ptr noundef %0) local_unnamed_addr #0 align 16 {
  %2 = tail call i64 asm "add %gs:$1, $0", "=r,*m,0,~{dirflag},~{fpsr},~{flags}"(ptr nonnull elementtype(i64) @this_cpu_off, ptr nonnull @osq_node) #2, !srcloc !5
  %3 = inttoptr i64 %2 to ptr
  %4 = tail call i32 asm "movl %gs:$1, $0", "=r,*m,~{dirflag},~{fpsr},~{flags}"(ptr nonnull elementtype(i32) getelementptr inbounds (%struct.pcpu_hot, ptr @pcpu_hot, i64 0, i32 0, i32 0, i32 2)) #2, !srcloc !6
  %5 = add i32 %4, 1
  %6 = getelementptr inbounds i8, ptr %3, i64 16
  store i32 0, ptr %6, align 8
  store ptr null, ptr %3, align 8
  %7 = getelementptr inbounds i8, ptr %3, i64 20
  store i32 %5, ptr %7, align 4
  %8 = tail call i32 asm sideeffect "xchgl $0, $1\0A", "=r,=*m,0,*m,~{memory},~{cc},~{dirflag},~{fpsr},~{flags}"(ptr elementtype(i32) %0, i32 %5, ptr elementtype(i32) %0) #3, !srcloc !7
  %9 = icmp eq i32 %8, 0
  br i1 %9, label %.thread, label %10

10:                                               ; preds = %1
  %11 = add i32 %8, -1
  %12 = sext i32 %11 to i64
  %13 = getelementptr [64 x i64], ptr @__per_cpu_offset, i64 0, i64 %12
  %14 = load i64, ptr %13, align 8
  %15 = add i64 %14, ptrtoint (ptr @osq_node to i64)
  %16 = inttoptr i64 %15 to ptr
  %17 = getelementptr inbounds i8, ptr %3, i64 8
  store ptr %16, ptr %17, align 8
  tail call void asm sideeffect "", "~{memory},~{dirflag},~{fpsr},~{flags}"() #3, !srcloc !8
  store volatile ptr %3, ptr %16, align 8
  %18 = load volatile i32, ptr %6, align 4
  %19 = icmp eq i32 %18, 0
  br i1 %19, label %20, label %.thread

20:                                               ; preds = %10
  %21 = tail call i64 asm "movq %gs:${1:P}, $0", "=r,p,~{dirflag},~{fpsr},~{flags}"(ptr nonnull @pcpu_hot) #4, !srcloc !9
  %22 = inttoptr i64 %21 to ptr
  br label %23

23:                                               ; preds = %27, %20
  %24 = load volatile i64, ptr %22, align 8
  %25 = and i64 %24, 8
  %26 = icmp eq i64 %25, 0
  br i1 %26, label %27, label %.preheader

27:                                               ; preds = %23
  tail call void asm sideeffect "rep; nop", "~{memory},~{dirflag},~{fpsr},~{flags}"() #3, !srcloc !10
  %28 = load volatile i32, ptr %6, align 4
  %29 = icmp eq i32 %28, 0
  br i1 %29, label %23, label %.thread, !llvm.loop !11

.preheader:                                       ; preds = %23, %39
  %30 = phi ptr [ %40, %39 ], [ %16, %23 ]
  %31 = load ptr, ptr %30, align 8
  %32 = icmp eq ptr %31, %3
  br i1 %32, label %33, label %36

33:                                               ; preds = %.preheader
  %34 = tail call ptr asm sideeffect ".pushsection .smp_locks,\22a\22\0A.balign 4\0A.long 671f - .\0A.popsection\0A671:\0A\09lock; cmpxchgq $2,$1", "={ax},=*m,r,0,*m,~{memory},~{dirflag},~{fpsr},~{flags}"(ptr elementtype(i64) %30, ptr null, ptr %3, ptr elementtype(i64) %30) #3, !srcloc !13
  %35 = icmp eq ptr %34, %3
  br i1 %35, label %41, label %36

36:                                               ; preds = %33, %.preheader
  %37 = load volatile i32, ptr %6, align 8
  tail call void asm sideeffect "", "~{memory},~{dirflag},~{fpsr},~{flags}"() #3, !srcloc !14
  %38 = icmp eq i32 %37, 0
  br i1 %38, label %39, label %.thread

39:                                               ; preds = %36
  tail call void asm sideeffect "rep; nop", "~{memory},~{dirflag},~{fpsr},~{flags}"() #3, !srcloc !10
  %40 = load volatile ptr, ptr %17, align 8
  br label %.preheader, !llvm.loop !15

41:                                               ; preds = %33
  %42 = getelementptr inbounds i8, ptr %30, i64 20
  %43 = load i32, ptr %42, align 4
  %44 = tail call i32 asm "movl %gs:$1, $0", "=r,*m,~{dirflag},~{fpsr},~{flags}"(ptr nonnull elementtype(i32) getelementptr inbounds (%struct.pcpu_hot, ptr @pcpu_hot, i64 0, i32 0, i32 0, i32 2)) #2, !srcloc !16
  %45 = add i32 %44, 1
  br label %46

46:                                               ; preds = %58, %41
  %47 = load volatile i32, ptr %0, align 4
  %48 = icmp eq i32 %47, %45
  br i1 %48, label %49, label %52

49:                                               ; preds = %46
  %50 = tail call i32 asm sideeffect ".pushsection .smp_locks,\22a\22\0A.balign 4\0A.long 671f - .\0A.popsection\0A671:\0A\09lock; cmpxchgl $2,$1", "={ax},=*m,r,0,*m,~{memory},~{dirflag},~{fpsr},~{flags}"(ptr elementtype(i32) %0, i32 %43, i32 %45, ptr elementtype(i32) %0) #3, !srcloc !17
  %51 = icmp eq i32 %50, %45
  br i1 %51, label %.thread, label %52

52:                                               ; preds = %49, %46
  %53 = load ptr, ptr %3, align 8
  %54 = icmp eq ptr %53, null
  br i1 %54, label %58, label %55

55:                                               ; preds = %52
  %56 = tail call ptr asm sideeffect "xchgq ${0:q}, $1\0A", "=r,=*m,0,*m,~{memory},~{cc},~{dirflag},~{fpsr},~{flags}"(ptr elementtype(ptr) %3, ptr null, ptr elementtype(ptr) %3) #3, !srcloc !18
  %57 = icmp eq ptr %56, null
  br i1 %57, label %58, label %59

58:                                               ; preds = %55, %52
  tail call void asm sideeffect "rep; nop", "~{memory},~{dirflag},~{fpsr},~{flags}"() #3, !srcloc !10
  br label %46, !llvm.loop !19

59:                                               ; preds = %55
  %60 = getelementptr inbounds i8, ptr %56, i64 8
  store volatile ptr %30, ptr %60, align 8
  store volatile ptr %56, ptr %30, align 8
  br label %.thread

.thread:                                          ; preds = %27, %36, %49, %59, %10, %1
  %61 = phi i1 [ false, %59 ], [ true, %1 ], [ true, %10 ], [ false, %49 ], [ true, %36 ], [ true, %27 ]
  ret i1 %61
}

; Function Attrs: fn_ret_thunk_extern inlinehint nounwind null_pointer_is_valid
define internal fastcc ptr @osq_wait_next(ptr noundef %0, ptr noundef %1) unnamed_addr #1 align 16 {
  %3 = tail call i32 asm "movl %gs:$1, $0", "=r,*m,~{dirflag},~{fpsr},~{flags}"(ptr nonnull elementtype(i32) getelementptr inbounds (%struct.pcpu_hot, ptr @pcpu_hot, i64 0, i32 0, i32 0, i32 2)) #2, !srcloc !16
  %4 = add i32 %3, 1
  br label %5

5:                                                ; preds = %17, %2
  %6 = load volatile i32, ptr %0, align 4
  %7 = icmp eq i32 %6, %4
  br i1 %7, label %8, label %11

8:                                                ; preds = %5
  %9 = tail call i32 asm sideeffect ".pushsection .smp_locks,\22a\22\0A.balign 4\0A.long 671f - .\0A.popsection\0A671:\0A\09lock; cmpxchgl $2,$1", "={ax},=*m,r,0,*m,~{memory},~{dirflag},~{fpsr},~{flags}"(ptr elementtype(i32) %0, i32 0, i32 %4, ptr elementtype(i32) %0) #3, !srcloc !17
  %10 = icmp eq i32 %9, %4
  br i1 %10, label %18, label %11

11:                                               ; preds = %8, %5
  %12 = load ptr, ptr %1, align 8
  %13 = icmp eq ptr %12, null
  br i1 %13, label %17, label %14

14:                                               ; preds = %11
  %15 = tail call ptr asm sideeffect "xchgq ${0:q}, $1\0A", "=r,=*m,0,*m,~{memory},~{cc},~{dirflag},~{fpsr},~{flags}"(ptr elementtype(ptr) %1, ptr null, ptr elementtype(ptr) %1) #3, !srcloc !18
  %16 = icmp eq ptr %15, null
  br i1 %16, label %17, label %18

17:                                               ; preds = %14, %11
  tail call void asm sideeffect "rep; nop", "~{memory},~{dirflag},~{fpsr},~{flags}"() #3, !srcloc !10
  br label %5, !llvm.loop !19

18:                                               ; preds = %14, %8
  %19 = phi ptr [ %15, %14 ], [ null, %8 ]
  ret ptr %19
}

; Function Attrs: fn_ret_thunk_extern nounwind null_pointer_is_valid
define dso_local void @osq_unlock(ptr noundef %0) local_unnamed_addr #0 align 16 {
  %2 = tail call i32 asm "movl %gs:$1, $0", "=r,*m,~{dirflag},~{fpsr},~{flags}"(ptr nonnull elementtype(i32) getelementptr inbounds (%struct.pcpu_hot, ptr @pcpu_hot, i64 0, i32 0, i32 0, i32 2)) #2, !srcloc !20
  %3 = add i32 %2, 1
  %4 = tail call i32 asm sideeffect ".pushsection .smp_locks,\22a\22\0A.balign 4\0A.long 671f - .\0A.popsection\0A671:\0A\09lock; cmpxchgl $2,$1", "={ax},=*m,r,0,*m,~{memory},~{dirflag},~{fpsr},~{flags}"(ptr elementtype(i32) %0, i32 0, i32 %3, ptr elementtype(i32) %0) #3, !srcloc !17
  %5 = icmp eq i32 %4, %3
  br i1 %5, label %17, label %6, !prof !21

6:                                                ; preds = %1
  %7 = tail call i64 asm "add %gs:$1, $0", "=r,*m,0,~{dirflag},~{fpsr},~{flags}"(ptr nonnull elementtype(i64) @this_cpu_off, ptr nonnull @osq_node) #2, !srcloc !22
  %8 = inttoptr i64 %7 to ptr
  %9 = tail call ptr asm sideeffect "xchgq ${0:q}, $1\0A", "=r,=*m,0,*m,~{memory},~{cc},~{dirflag},~{fpsr},~{flags}"(ptr elementtype(ptr) %8, ptr null, ptr elementtype(ptr) %8) #3, !srcloc !23
  %10 = icmp eq ptr %9, null
  br i1 %10, label %11, label %14

11:                                               ; preds = %6
  %12 = tail call fastcc ptr @osq_wait_next(ptr noundef %0, ptr noundef %8)
  %13 = icmp eq ptr %12, null
  br i1 %13, label %17, label %14

14:                                               ; preds = %11, %6
  %15 = phi ptr [ %9, %6 ], [ %12, %11 ]
  %16 = getelementptr inbounds i8, ptr %15, i64 16
  store volatile i32 1, ptr %16, align 8
  br label %17

17:                                               ; preds = %14, %11, %1
  ret void
}


!llvm.module.flags = !{!0, !1, !2, !3, !4}

!0 = !{i32 1, !"wchar_size", i32 2}
!1 = !{i32 8, !"cf-protection-branch", i32 1}
!2 = !{i32 4, !"function_return_thunk_extern", i32 1}
!3 = !{i32 4, !"indirect_branch_cs_prefix", i32 1}
!4 = !{i32 4, !"SkipRaxSetup", i32 1}
!5 = !{i64 2149969314}
!6 = !{i64 2149972225}
!7 = !{i64 2148543866}
!8 = !{i64 2149973103}
!9 = !{i64 2147919594}
!10 = !{i64 1975246}
!11 = distinct !{!11, !12}
!12 = !{!"llvm.loop.unroll.disable"}
!13 = !{i64 2149982366, i64 2149982405, i64 2149982426, i64 2149982463, i64 2149982486, i64 2149982495}
!14 = !{i64 2149987376}
!15 = distinct !{!15, !12}
!16 = !{i64 2149966912}
!17 = !{i64 2148538978, i64 2148539017, i64 2148539038, i64 2148539075, i64 2148539098, i64 2148539107}
!18 = !{i64 2149968919}
!19 = distinct !{!19, !12}
!20 = !{i64 2149996873}
!21 = !{!"branch_weights", i32 2000, i32 1}
!22 = !{i64 2150002133}
!23 = !{i64 2150003626}
